target datalayout = "e-m:e-p270:32:32-p271:32:32-p272:64:64-i64:64-i128:128-f80:128-n8:16:32:64-S128"
target triple = "x86_64-pc-linux-gnu"

%"class.i18n::phonenumbers::UnicodeText::Repr" = type <{ ptr, i32, i32, i8, i8, [6 x i8] }>

; Function Attrs: inlinehint mustprogress nounwind uwtable
define linkonce_odr dso_local noundef nonnull align 4 dereferenceable(4) ptr @_ZSt3maxIiERKT_S2_S2_(ptr noundef nonnull align 4 dereferenceable(4) %0, ptr noundef nonnull align 4 dereferenceable(4) %1) #2 comdat {
  %3 = alloca ptr, align 8
  %4 = alloca ptr, align 8
  %5 = alloca ptr, align 8
  store ptr %0, ptr %4, align 8, !tbaa !28
  store ptr %1, ptr %5, align 8, !tbaa !28
  %6 = load ptr, ptr %4, align 8, !tbaa !28
  %7 = load i32, ptr %6, align 4, !tbaa !13
  %8 = load ptr, ptr %5, align 8, !tbaa !28
  %9 = load i32, ptr %8, align 4, !tbaa !13
  %10 = icmp slt i32 %7, %9
  br i1 %10, label %11, label %13

11:                                               ; preds = %2
  %12 = load ptr, ptr %5, align 8, !tbaa !28
  store ptr %12, ptr %3, align 8
  br label %15

13:                                               ; preds = %2
  %14 = load ptr, ptr %4, align 8, !tbaa !28
  store ptr %14, ptr %3, align 8
  br label %15

15:                                               ; preds = %13, %11
  %16 = load ptr, ptr %3, align 8
  ret ptr %16
}

; Function Attrs: mustprogress uwtable
define dso_local void @_ZN4i18n12phonenumbers11UnicodeText4Repr7reserveEi(ptr noundef nonnull align 8 dereferenceable(18) %0, i32 noundef %1) #0 align 2 {
  %3 = alloca ptr, align 8
  %4 = alloca i32, align 4
  %5 = alloca i32, align 4
  %6 = alloca ptr, align 8
  store ptr %0, ptr %3, align 8, !tbaa !18
  store i32 %1, ptr %4, align 4, !tbaa !13
  %7 = load ptr, ptr %3, align 8
  %8 = getelementptr inbounds nuw %"class.i18n::phonenumbers::UnicodeText::Repr", ptr %7, i32 0, i32 2
  %9 = load i32, ptr %8, align 4, !tbaa !20
  %10 = load i32, ptr %4, align 4, !tbaa !13
  %11 = icmp sge i32 %9, %10
  br i1 %11, label %12, label %17

12:                                               ; preds = %2
  %13 = getelementptr inbounds nuw %"class.i18n::phonenumbers::UnicodeText::Repr", ptr %7, i32 0, i32 3
  %14 = load i8, ptr %13, align 8, !tbaa !23, !range !24, !noundef !25
  %15 = trunc i8 %14 to i1
  br i1 %15, label %16, label %17

16:                                               ; preds = %12
  br label %54

17:                                               ; preds = %12, %2
  call void @llvm.lifetime.start.p0(i64 4, ptr %5) #15
  %18 = getelementptr inbounds nuw %"class.i18n::phonenumbers::UnicodeText::Repr", ptr %7, i32 0, i32 2
  %19 = load i32, ptr %18, align 4, !tbaa !20
  %20 = mul nsw i32 3, %19
  %21 = sdiv i32 %20, 2
  %22 = add nsw i32 %21, 20
  store i32 %22, ptr %5, align 4, !tbaa !13
  %23 = call noundef nonnull align 4 dereferenceable(4) ptr @_ZSt3maxIiERKT_S2_S2_(ptr noundef nonnull align 4 dereferenceable(4) %4, ptr noundef nonnull align 4 dereferenceable(4) %5)
  %24 = load i32, ptr %23, align 4, !tbaa !13
  %25 = getelementptr inbounds nuw %"class.i18n::phonenumbers::UnicodeText::Repr", ptr %7, i32 0, i32 2
  store i32 %24, ptr %25, align 4, !tbaa !20
  call void @llvm.lifetime.end.p0(i64 4, ptr %5) #15
  call void @llvm.lifetime.start.p0(i64 8, ptr %6) #15
  %26 = getelementptr inbounds nuw %"class.i18n::phonenumbers::UnicodeText::Repr", ptr %7, i32 0, i32 2
  %27 = load i32, ptr %26, align 4, !tbaa !20
  %28 = sext i32 %27 to i64
  %29 = call noalias noundef nonnull ptr @_Znam(i64 noundef %28) #16
  store ptr %29, ptr %6, align 8, !tbaa !12
  %30 = getelementptr inbounds nuw %"class.i18n::phonenumbers::UnicodeText::Repr", ptr %7, i32 0, i32 0
  %31 = load ptr, ptr %30, align 8, !tbaa !26
  %32 = icmp ne ptr %31, null
  br i1 %32, label %33, label %50

33:                                               ; preds = %17
  %34 = load ptr, ptr %6, align 8, !tbaa !12
  %35 = getelementptr inbounds nuw %"class.i18n::phonenumbers::UnicodeText::Repr", ptr %7, i32 0, i32 0
  %36 = load ptr, ptr %35, align 8, !tbaa !26
  %37 = getelementptr inbounds nuw %"class.i18n::phonenumbers::UnicodeText::Repr", ptr %7, i32 0, i32 1
  %38 = load i32, ptr %37, align 8, !tbaa !27
  %39 = sext i32 %38 to i64
  call void @llvm.memcpy.p0.p0.i64(ptr align 1 %34, ptr align 1 %36, i64 %39, i1 false)
  %40 = getelementptr inbounds nuw %"class.i18n::phonenumbers::UnicodeText::Repr", ptr %7, i32 0, i32 3
  %41 = load i8, ptr %40, align 8, !tbaa !23, !range !24, !noundef !25
  %42 = trunc i8 %41 to i1
  br i1 %42, label %43, label %49

43:                                               ; preds = %33
  %44 = getelementptr inbounds nuw %"class.i18n::phonenumbers::UnicodeText::Repr", ptr %7, i32 0, i32 0
  %45 = load ptr, ptr %44, align 8, !tbaa !26
  %46 = icmp eq ptr %45, null
  br i1 %46, label %48, label %47

47:                                               ; preds = %43
  call void @_ZdaPv(ptr noundef %45) #17
  br label %48

48:                                               ; preds = %47, %43
  br label %49

49:                                               ; preds = %48, %33
  br label %50

50:                                               ; preds = %49, %17
  %51 = load ptr, ptr %6, align 8, !tbaa !12
  %52 = getelementptr inbounds nuw %"class.i18n::phonenumbers::UnicodeText::Repr", ptr %7, i32 0, i32 0
  store ptr %51, ptr %52, align 8, !tbaa !26
  %53 = getelementptr inbounds nuw %"class.i18n::phonenumbers::UnicodeText::Repr", ptr %7, i32 0, i32 3
  store i8 1, ptr %53, align 8, !tbaa !23
  call void @llvm.lifetime.end.p0(i64 8, ptr %6) #15
  br label %54

54:                                               ; preds = %50, %16
  ret void
}

; Function Attrs: mustprogress nounwind uwtable
define dso_local void @_ZN4i18n12phonenumbers11UnicodeText4Repr5clearEv(ptr noundef nonnull align 8 dereferenceable(18) %0) #1 align 2 {
  %2 = alloca ptr, align 8
  store ptr %0, ptr %2, align 8, !tbaa !18
  %3 = load ptr, ptr %2, align 8
  %4 = getelementptr inbounds nuw %"class.i18n::phonenumbers::UnicodeText::Repr", ptr %3, i32 0, i32 3
  %5 = load i8, ptr %4, align 8, !tbaa !23, !range !24, !noundef !25
  %6 = trunc i8 %5 to i1
  br i1 %6, label %7, label %13

7:                                                ; preds = %1
  %8 = getelementptr inbounds nuw %"class.i18n::phonenumbers::UnicodeText::Repr", ptr %3, i32 0, i32 0
  %9 = load ptr, ptr %8, align 8, !tbaa !26
  %10 = icmp eq ptr %9, null
  br i1 %10, label %12, label %11

11:                                               ; preds = %7
  call void @_ZdaPv(ptr noundef %9) #17
  br label %12

12:                                               ; preds = %11, %7
  br label %13

13:                                               ; preds = %12, %1
  %14 = getelementptr inbounds nuw %"class.i18n::phonenumbers::UnicodeText::Repr", ptr %3, i32 0, i32 0
  store ptr null, ptr %14, align 8, !tbaa !26
  %15 = getelementptr inbounds nuw %"class.i18n::phonenumbers::UnicodeText::Repr", ptr %3, i32 0, i32 2
  store i32 0, ptr %15, align 4, !tbaa !20
  %16 = getelementptr inbounds nuw %"class.i18n::phonenumbers::UnicodeText::Repr", ptr %3, i32 0, i32 1
  store i32 0, ptr %16, align 8, !tbaa !27
  %17 = getelementptr inbounds nuw %"class.i18n::phonenumbers::UnicodeText::Repr", ptr %3, i32 0, i32 3
  store i8 1, ptr %17, align 8, !tbaa !23
  ret void
}

; Function Attrs: mustprogress uwtable
define dso_local void @_ZN4i18n12phonenumbers11UnicodeText4Repr6resizeEi(ptr noundef nonnull align 8 dereferenceable(18) %0, i32 noundef %1) #0 align 2 {
  %3 = alloca ptr, align 8
  %4 = alloca i32, align 4
  store ptr %0, ptr %3, align 8, !tbaa !18
  store i32 %1, ptr %4, align 4, !tbaa !13
  %5 = load ptr, ptr %3, align 8
  %6 = load i32, ptr %4, align 4, !tbaa !13
  %7 = icmp eq i32 %6, 0
  br i1 %7, label %8, label %9

8:                                                ; preds = %2
  call void @_ZN4i18n12phonenumbers11UnicodeText4Repr5clearEv(ptr noundef nonnull align 8 dereferenceable(18) %5)
  br label %41

9:                                                ; preds = %2
  %10 = getelementptr inbounds nuw %"class.i18n::phonenumbers::UnicodeText::Repr", ptr %5, i32 0, i32 3
  %11 = load i8, ptr %10, align 8, !tbaa !23, !range !24, !noundef !25
  %12 = trunc i8 %11 to i1
  br i1 %12, label %13, label %18

13:                                               ; preds = %9
  %14 = load i32, ptr %4, align 4, !tbaa !13
  %15 = getelementptr inbounds nuw %"class.i18n::phonenumbers::UnicodeText::Repr", ptr %5, i32 0, i32 2
  %16 = load i32, ptr %15, align 4, !tbaa !20
  %17 = icmp sgt i32 %14, %16
  br i1 %17, label %18, label %20

18:                                               ; preds = %13, %9
  %19 = load i32, ptr %4, align 4, !tbaa !13
  call void @_ZN4i18n12phonenumbers11UnicodeText4Repr7reserveEi(ptr noundef nonnull align 8 dereferenceable(18) %5, i32 noundef %19)
  br label %20

20:                                               ; preds = %18, %13
  %21 = getelementptr inbounds nuw %"class.i18n::phonenumbers::UnicodeText::Repr", ptr %5, i32 0, i32 1
  %22 = load i32, ptr %21, align 8, !tbaa !27
  %23 = load i32, ptr %4, align 4, !tbaa !13
  %24 = icmp slt i32 %22, %23
  br i1 %24, label %25, label %37

25:                                               ; preds = %20
  %26 = getelementptr inbounds nuw %"class.i18n::phonenumbers::UnicodeText::Repr", ptr %5, i32 0, i32 0
  %27 = load ptr, ptr %26, align 8, !tbaa !26
  %28 = getelementptr inbounds nuw %"class.i18n::phonenumbers::UnicodeText::Repr", ptr %5, i32 0, i32 1
  %29 = load i32, ptr %28, align 8, !tbaa !27
  %30 = sext i32 %29 to i64
  %31 = getelementptr inbounds i8, ptr %27, i64 %30
  %32 = load i32, ptr %4, align 4, !tbaa !13
  %33 = getelementptr inbounds nuw %"class.i18n::phonenumbers::UnicodeText::Repr", ptr %5, i32 0, i32 1
  %34 = load i32, ptr %33, align 8, !tbaa !27
  %35 = sub nsw i32 %32, %34
  %36 = sext i32 %35 to i64
  call void @llvm.memset.p0.i64(ptr align 1 %31, i8 0, i64 %36, i1 false)
  br label %37

37:                                               ; preds = %25, %20
  %38 = load i32, ptr %4, align 4, !tbaa !13
  %39 = getelementptr inbounds nuw %"class.i18n::phonenumbers::UnicodeText::Repr", ptr %5, i32 0, i32 1
  store i32 %38, ptr %39, align 8, !tbaa !27
  %40 = getelementptr inbounds nuw %"class.i18n::phonenumbers::UnicodeText::Repr", ptr %5, i32 0, i32 3
  store i8 1, ptr %40, align 8, !tbaa !23
  br label %41

41:                                               ; preds = %37, %8
  ret void
}