; Function Attrs: mustprogress uwtable
define dso_local void @_ZN4i18n12phonenumbers11UnicodeText4Repr6resizeEi(ptr noundef nonnull align 8 captures(none) dereferenceable(18) %0, i32 noundef %1) local_unnamed_addr #1 align 2 {
  %3 = icmp eq i32 %1, 0
  %4 = getelementptr inbounds nuw i8, ptr %0, i64 16
  %5 = load i8, ptr %4, align 8, !tbaa !17, !range !18, !noundef !19
  %6 = trunc nuw i8 %5 to i1
  br i1 %3, label %7, label %12

7:                                                ; preds = %2
  br i1 %6, label %8, label %_ZN4i18n12phonenumbers11UnicodeText4Repr5clearEv.exit

8:                                                ; preds = %7
  %9 = load ptr, ptr %0, align 8, !tbaa !20
  %10 = icmp eq ptr %9, null
  br i1 %10, label %_ZN4i18n12phonenumbers11UnicodeText4Repr5clearEv.exit, label %11

11:                                               ; preds = %8
  tail call void @_ZdaPv(ptr noundef nonnull %9) #26
  br label %_ZN4i18n12phonenumbers11UnicodeText4Repr5clearEv.exit

_ZN4i18n12phonenumbers11UnicodeText4Repr5clearEv.exit: ; preds = %7, %8, %11
  tail call void @llvm.memset.p0.i64(ptr noundef nonnull align 8 dereferenceable(18) %0, i8 0, i64 16, i1 false)
  br label %39

12:                                               ; preds = %2
  %13 = getelementptr inbounds nuw i8, ptr %0, i64 12
  %14 = load i32, ptr %13, align 4
  %15 = icmp sle i32 %1, %14
  %or.cond10.not = and i1 %15, %6
  br i1 %or.cond10.not, label %_ZN4i18n12phonenumbers11UnicodeText4Repr7reserveEi.exit, label %16

16:                                               ; preds = %12
  %17 = mul nsw i32 %14, 3
  %18 = sdiv i32 %17, 2
  %19 = add nsw i32 %18, 20
  %.sroa.speculated.i = tail call i32 @llvm.smax.i32(i32 %1, i32 %19)
  store i32 %.sroa.speculated.i, ptr %13, align 4, !tbaa !13
  %20 = sext i32 %.sroa.speculated.i to i64
  %21 = tail call noalias noundef nonnull ptr @_Znam(i64 noundef %20) #25
  %22 = load ptr, ptr %0, align 8, !tbaa !20
  %.not4.i = icmp eq ptr %22, null
  br i1 %.not4.i, label %28, label %23

23:                                               ; preds = %16
  %24 = getelementptr inbounds nuw i8, ptr %0, i64 8
  %25 = load i32, ptr %24, align 8, !tbaa !21
  %26 = sext i32 %25 to i64
  tail call void @llvm.memcpy.p0.p0.i64(ptr nonnull align 1 %21, ptr nonnull align 1 %22, i64 %26, i1 false)
  br i1 %6, label %27, label %28

27:                                               ; preds = %23
  tail call void @_ZdaPv(ptr noundef nonnull %22) #26
  br label %28

28:                                               ; preds = %27, %23, %16
  store ptr %21, ptr %0, align 8, !tbaa !20
  br label %_ZN4i18n12phonenumbers11UnicodeText4Repr7reserveEi.exit

_ZN4i18n12phonenumbers11UnicodeText4Repr7reserveEi.exit: ; preds = %28, %12
  %29 = getelementptr inbounds nuw i8, ptr %0, i64 8
  %30 = load i32, ptr %29, align 8, !tbaa !21
  %31 = icmp slt i32 %30, %1
  br i1 %31, label %32, label %38

32:                                               ; preds = %_ZN4i18n12phonenumbers11UnicodeText4Repr7reserveEi.exit
  %33 = load ptr, ptr %0, align 8, !tbaa !20
  %34 = sext i32 %30 to i64
  %35 = getelementptr inbounds i8, ptr %33, i64 %34
  %36 = sub nsw i32 %1, %30
  %37 = sext i32 %36 to i64
  tail call void @llvm.memset.p0.i64(ptr align 1 %35, i8 0, i64 %37, i1 false)
  br label %38

38:                                               ; preds = %32, %_ZN4i18n12phonenumbers11UnicodeText4Repr7reserveEi.exit
  store i32 %1, ptr %29, align 8, !tbaa !21
  br label %39

39:                                               ; preds = %38, %_ZN4i18n12phonenumbers11UnicodeText4Repr5clearEv.exit
  store i8 1, ptr %4, align 8, !tbaa !17
  ret void
}